target datalayout = "e-m:e-p270:32:32-p271:32:32-p272:64:64-i64:64-i128:128-f80:128-n8:16:32:64-S128"
target triple = "x86_64-pc-linux-gnu"

; Function Attrs: mustprogress uwtable
define hidden void @_ZN4cvc58internal6theory2uf18UfProofRuleChecker10registerToEPNS0_12ProofCheckerE(ptr noundef nonnull align 8 dereferenceable(16) %0, ptr noundef %1) unnamed_addr #4 align 2 {
  %3 = alloca ptr, align 8
  %4 = alloca ptr, align 8
  store ptr %0, ptr %3, align 8, !tbaa !3
  store ptr %1, ptr %4, align 8, !tbaa !8
  %5 = load ptr, ptr %3, align 8
  %6 = load ptr, ptr %4, align 8, !tbaa !8
  call void @_ZN4cvc58internal12ProofChecker15registerCheckerENS_9ProofRuleEPNS0_16ProofRuleCheckerE(ptr noundef nonnull align 8 dereferenceable(128) %6, i32 noundef 71, ptr noundef %5)
  %7 = load ptr, ptr %4, align 8, !tbaa !8
  call void @_ZN4cvc58internal12ProofChecker15registerCheckerENS_9ProofRuleEPNS0_16ProofRuleCheckerE(ptr noundef nonnull align 8 dereferenceable(128) %7, i32 noundef 72, ptr noundef %5)
  %8 = load ptr, ptr %4, align 8, !tbaa !8
  call void @_ZN4cvc58internal12ProofChecker15registerCheckerENS_9ProofRuleEPNS0_16ProofRuleCheckerE(ptr noundef nonnull align 8 dereferenceable(128) %8, i32 noundef 73, ptr noundef %5)
  %9 = load ptr, ptr %4, align 8, !tbaa !8
  call void @_ZN4cvc58internal12ProofChecker15registerCheckerENS_9ProofRuleEPNS0_16ProofRuleCheckerE(ptr noundef nonnull align 8 dereferenceable(128) %9, i32 noundef 74, ptr noundef %5)
  %10 = load ptr, ptr %4, align 8, !tbaa !8
  call void @_ZN4cvc58internal12ProofChecker15registerCheckerENS_9ProofRuleEPNS0_16ProofRuleCheckerE(ptr noundef nonnull align 8 dereferenceable(128) %10, i32 noundef 75, ptr noundef %5)
  %11 = load ptr, ptr %4, align 8, !tbaa !8
  call void @_ZN4cvc58internal12ProofChecker15registerCheckerENS_9ProofRuleEPNS0_16ProofRuleCheckerE(ptr noundef nonnull align 8 dereferenceable(128) %11, i32 noundef 76, ptr noundef %5)
  %12 = load ptr, ptr %4, align 8, !tbaa !8
  call void @_ZN4cvc58internal12ProofChecker15registerCheckerENS_9ProofRuleEPNS0_16ProofRuleCheckerE(ptr noundef nonnull align 8 dereferenceable(128) %12, i32 noundef 77, ptr noundef %5)
  %13 = load ptr, ptr %4, align 8, !tbaa !8
  call void @_ZN4cvc58internal12ProofChecker15registerCheckerENS_9ProofRuleEPNS0_16ProofRuleCheckerE(ptr noundef nonnull align 8 dereferenceable(128) %13, i32 noundef 78, ptr noundef %5)
  %14 = load ptr, ptr %4, align 8, !tbaa !8
  call void @_ZN4cvc58internal12ProofChecker15registerCheckerENS_9ProofRuleEPNS0_16ProofRuleCheckerE(ptr noundef nonnull align 8 dereferenceable(128) %14, i32 noundef 79, ptr noundef %5)
  %15 = load ptr, ptr %4, align 8, !tbaa !8
  call void @_ZN4cvc58internal12ProofChecker15registerCheckerENS_9ProofRuleEPNS0_16ProofRuleCheckerE(ptr noundef nonnull align 8 dereferenceable(128) %15, i32 noundef 81, ptr noundef %5)
  %16 = load ptr, ptr %4, align 8, !tbaa !8
  call void @_ZN4cvc58internal12ProofChecker15registerCheckerENS_9ProofRuleEPNS0_16ProofRuleCheckerE(ptr noundef nonnull align 8 dereferenceable(128) %16, i32 noundef 80, ptr noundef %5)
  ret void
}