; Function Attrs: mustprogress uwtable
define hidden void @_ZN4cvc58internal6theory2uf18UfProofRuleChecker10registerToEPNS0_12ProofCheckerE(ptr noundef nonnull align 8 dereferenceable(16) %0, ptr noundef nonnull %1) unnamed_addr #3 align 2 {
  tail call void @_ZN4cvc58internal12ProofChecker15registerCheckerENS_9ProofRuleEPNS0_16ProofRuleCheckerE(ptr noundef nonnull align 8 dereferenceable(128) %1, i32 noundef 71, ptr noundef nonnull %0)
  tail call void @_ZN4cvc58internal12ProofChecker15registerCheckerENS_9ProofRuleEPNS0_16ProofRuleCheckerE(ptr noundef nonnull align 8 dereferenceable(128) %1, i32 noundef 72, ptr noundef nonnull %0)
  tail call void @_ZN4cvc58internal12ProofChecker15registerCheckerENS_9ProofRuleEPNS0_16ProofRuleCheckerE(ptr noundef nonnull align 8 dereferenceable(128) %1, i32 noundef 73, ptr noundef nonnull %0)
  tail call void @_ZN4cvc58internal12ProofChecker15registerCheckerENS_9ProofRuleEPNS0_16ProofRuleCheckerE(ptr noundef nonnull align 8 dereferenceable(128) %1, i32 noundef 74, ptr noundef nonnull %0)
  tail call void @_ZN4cvc58internal12ProofChecker15registerCheckerENS_9ProofRuleEPNS0_16ProofRuleCheckerE(ptr noundef nonnull align 8 dereferenceable(128) %1, i32 noundef 75, ptr noundef nonnull %0)
  tail call void @_ZN4cvc58internal12ProofChecker15registerCheckerENS_9ProofRuleEPNS0_16ProofRuleCheckerE(ptr noundef nonnull align 8 dereferenceable(128) %1, i32 noundef 76, ptr noundef nonnull %0)
  tail call void @_ZN4cvc58internal12ProofChecker15registerCheckerENS_9ProofRuleEPNS0_16ProofRuleCheckerE(ptr noundef nonnull align 8 dereferenceable(128) %1, i32 noundef 77, ptr noundef nonnull %0)
  tail call void @_ZN4cvc58internal12ProofChecker15registerCheckerENS_9ProofRuleEPNS0_16ProofRuleCheckerE(ptr noundef nonnull align 8 dereferenceable(128) %1, i32 noundef 78, ptr noundef nonnull %0)
  tail call void @_ZN4cvc58internal12ProofChecker15registerCheckerENS_9ProofRuleEPNS0_16ProofRuleCheckerE(ptr noundef nonnull align 8 dereferenceable(128) %1, i32 noundef 79, ptr noundef nonnull %0)
  tail call void @_ZN4cvc58internal12ProofChecker15registerCheckerENS_9ProofRuleEPNS0_16ProofRuleCheckerE(ptr noundef nonnull align 8 dereferenceable(128) %1, i32 noundef 81, ptr noundef nonnull %0)
  tail call void @_ZN4cvc58internal12ProofChecker15registerCheckerENS_9ProofRuleEPNS0_16ProofRuleCheckerE(ptr noundef nonnull align 8 dereferenceable(128) %1, i32 noundef 80, ptr noundef nonnull %0)
  ret void
}